target datalayout = "e-m:e-p270:32:32-p271:32:32-p272:64:64-i64:64-i128:128-f80:128-n8:16:32:64-S128"
target triple = "x86_64-unknown-linux-gnu"

%"class.icu_75::MaybeStackArray" = type <{ ptr, i32, i8, [40 x i8], [3 x i8] }>
%"class.icu_75::UObject" = type { ptr }
%"class.icu_75::CharString" = type { %"class.icu_75::MaybeStackArray", i32, [4 x i8] }
%"class.icu_75::StringPiece" = type <{ ptr, i32, [4 x i8] }>
%"class.icu_75::Locale" = type <{ %"class.icu_75::UObject", [12 x i8], [6 x i8], [4 x i8], [2 x i8], i32, [4 x i8], ptr, [157 x i8], [3 x i8], ptr, i8, [7 x i8] }>

@.str.2 = private unnamed_addr constant [7 x i8] c"und-u-\00", align 1
@_ZN6icu_7515MaybeStackArrayIcLi40EEC1Ev = weak_odr unnamed_addr alias void (ptr), ptr @_ZN6icu_7515MaybeStackArrayIcLi40EEC2Ev
@_ZN6icu_7515MaybeStackArrayIcLi40EED1Ev = weak_odr unnamed_addr alias void (ptr), ptr @_ZN6icu_7515MaybeStackArrayIcLi40EED2Ev

; Function Attrs: mustprogress nounwind uwtable
define linkonce_odr noundef i32 @_ZNK6icu_7511StringPiece6lengthEv(ptr noundef nonnull align 8 dereferenceable(12) %this) #0 comdat align 2 {
entry:
  %this.addr = alloca ptr, align 8
  store ptr %this, ptr %this.addr, align 8
  %this1 = load ptr, ptr %this.addr, align 8
  %length_ = getelementptr inbounds %"class.icu_75::StringPiece", ptr %this1, i32 0, i32 1
  %0 = load i32, ptr %length_, align 8
  ret i32 %0
}

; Function Attrs: mustprogress nounwind uwtable
define linkonce_odr noundef ptr @_ZNK6icu_7511StringPiece4dataEv(ptr noundef nonnull align 8 dereferenceable(12) %this) #0 comdat align 2 {
entry:
  %this.addr = alloca ptr, align 8
  store ptr %this, ptr %this.addr, align 8
  %this1 = load ptr, ptr %this.addr, align 8
  %ptr_ = getelementptr inbounds %"class.icu_75::StringPiece", ptr %this1, i32 0, i32 0
  %0 = load ptr, ptr %ptr_, align 8
  ret ptr %0
}

; Function Attrs: mustprogress nounwind uwtable
define weak_odr noundef ptr @_ZNK6icu_7515MaybeStackArrayIcLi40EE8getAliasEv(ptr noundef nonnull align 8 dereferenceable(53) %this) #0 comdat align 2 {
entry:
  %this.addr = alloca ptr, align 8
  store ptr %this, ptr %this.addr, align 8
  %this1 = load ptr, ptr %this.addr, align 8
  %ptr = getelementptr inbounds %"class.icu_75::MaybeStackArray", ptr %this1, i32 0, i32 0
  %0 = load ptr, ptr %ptr, align 8
  ret ptr %0
}

; Function Attrs: mustprogress nounwind uwtable
define linkonce_odr noundef i32 @_ZNK6icu_7510CharString6lengthEv(ptr noundef nonnull align 8 dereferenceable(60) %this) #0 comdat align 2 {
entry:
  %this.addr = alloca ptr, align 8
  store ptr %this, ptr %this.addr, align 8
  %this1 = load ptr, ptr %this.addr, align 8
  %len = getelementptr inbounds %"class.icu_75::CharString", ptr %this1, i32 0, i32 1
  %0 = load i32, ptr %len, align 8
  ret i32 %0
}

; Function Attrs: mustprogress nounwind uwtable
define linkonce_odr noundef ptr @_ZNK6icu_7510CharString4dataEv(ptr noundef nonnull align 8 dereferenceable(60) %this) #0 comdat align 2 {
entry:
  %this.addr = alloca ptr, align 8
  store ptr %this, ptr %this.addr, align 8
  %this1 = load ptr, ptr %this.addr, align 8
  %buffer = getelementptr inbounds %"class.icu_75::CharString", ptr %this1, i32 0, i32 0
  %call = call noundef ptr @_ZNK6icu_7515MaybeStackArrayIcLi40EE8getAliasEv(ptr noundef nonnull align 8 dereferenceable(53) %buffer)
  ret ptr %call
}

; Function Attrs: mustprogress uwtable
define linkonce_odr noundef nonnull align 8 dereferenceable(60) ptr @_ZN6icu_7510CharString6appendENS_11StringPieceER10UErrorCode(ptr noundef nonnull align 8 dereferenceable(60) %this, ptr %s.coerce0, i32 %s.coerce1, ptr noundef nonnull align 4 dereferenceable(4) %errorCode) #1 comdat align 2 {
entry:
  %s = alloca %"class.icu_75::StringPiece", align 8
  %this.addr = alloca ptr, align 8
  %errorCode.addr = alloca ptr, align 8
  %0 = getelementptr inbounds { ptr, i32 }, ptr %s, i32 0, i32 0
  store ptr %s.coerce0, ptr %0, align 8
  %1 = getelementptr inbounds { ptr, i32 }, ptr %s, i32 0, i32 1
  store i32 %s.coerce1, ptr %1, align 8
  store ptr %this, ptr %this.addr, align 8
  store ptr %errorCode, ptr %errorCode.addr, align 8
  %this1 = load ptr, ptr %this.addr, align 8
  %call = call noundef ptr @_ZNK6icu_7511StringPiece4dataEv(ptr noundef nonnull align 8 dereferenceable(12) %s)
  %call2 = call noundef i32 @_ZNK6icu_7511StringPiece6lengthEv(ptr noundef nonnull align 8 dereferenceable(12) %s)
  %2 = load ptr, ptr %errorCode.addr, align 8
  %call3 = call noundef nonnull align 8 dereferenceable(60) ptr @_ZN6icu_7510CharString6appendEPKciR10UErrorCode(ptr noundef nonnull align 8 dereferenceable(60) %this1, ptr noundef %call, i32 noundef %call2, ptr noundef nonnull align 4 dereferenceable(4) %2)
  ret ptr %call3
}

; Function Attrs: mustprogress nounwind uwtable
define weak_odr noundef nonnull align 1 dereferenceable(1) ptr @_ZN6icu_7515MaybeStackArrayIcLi40EEixEl(ptr noundef nonnull align 8 dereferenceable(53) %this, i64 noundef %i) #0 comdat align 2 {
entry:
  %this.addr = alloca ptr, align 8
  %i.addr = alloca i64, align 8
  store ptr %this, ptr %this.addr, align 8
  store i64 %i, ptr %i.addr, align 8
  %this1 = load ptr, ptr %this.addr, align 8
  %ptr = getelementptr inbounds %"class.icu_75::MaybeStackArray", ptr %this1, i32 0, i32 0
  %0 = load ptr, ptr %ptr, align 8
  %1 = load i64, ptr %i.addr, align 8
  %arrayidx = getelementptr inbounds i8, ptr %0, i64 %1
  ret ptr %arrayidx
}

; Function Attrs: mustprogress nounwind uwtable
define linkonce_odr void @_ZN6icu_7510CharStringD2Ev(ptr noundef nonnull align 8 dereferenceable(60) %this) unnamed_addr #0 comdat align 2 {
entry:
  %this.addr = alloca ptr, align 8
  store ptr %this, ptr %this.addr, align 8
  %this1 = load ptr, ptr %this.addr, align 8
  %buffer = getelementptr inbounds %"class.icu_75::CharString", ptr %this1, i32 0, i32 0
  call void @_ZN6icu_7515MaybeStackArrayIcLi40EED1Ev(ptr noundef nonnull align 8 dereferenceable(53) %buffer) #9
  ret void
}

; Function Attrs: mustprogress nounwind uwtable
define linkonce_odr noundef ptr @_ZN6icu_7510CharString4dataEv(ptr noundef nonnull align 8 dereferenceable(60) %this) #0 comdat align 2 {
entry:
  %this.addr = alloca ptr, align 8
  store ptr %this, ptr %this.addr, align 8
  %this1 = load ptr, ptr %this.addr, align 8
  %buffer = getelementptr inbounds %"class.icu_75::CharString", ptr %this1, i32 0, i32 0
  %call = call noundef ptr @_ZNK6icu_7515MaybeStackArrayIcLi40EE8getAliasEv(ptr noundef nonnull align 8 dereferenceable(53) %buffer)
  ret ptr %call
}

; Function Attrs: mustprogress uwtable
define linkonce_odr noundef nonnull align 8 dereferenceable(60) ptr @_ZN6icu_7510CharString6appendERKS0_R10UErrorCode(ptr noundef nonnull align 8 dereferenceable(60) %this, ptr noundef nonnull align 8 dereferenceable(60) %s, ptr noundef nonnull align 4 dereferenceable(4) %errorCode) #1 comdat align 2 {
entry:
  %this.addr = alloca ptr, align 8
  %s.addr = alloca ptr, align 8
  %errorCode.addr = alloca ptr, align 8
  store ptr %this, ptr %this.addr, align 8
  store ptr %s, ptr %s.addr, align 8
  store ptr %errorCode, ptr %errorCode.addr, align 8
  %this1 = load ptr, ptr %this.addr, align 8
  %0 = load ptr, ptr %s.addr, align 8
  %call = call noundef ptr @_ZNK6icu_7510CharString4dataEv(ptr noundef nonnull align 8 dereferenceable(60) %0)
  %1 = load ptr, ptr %s.addr, align 8
  %call2 = call noundef i32 @_ZNK6icu_7510CharString6lengthEv(ptr noundef nonnull align 8 dereferenceable(60) %1)
  %2 = load ptr, ptr %errorCode.addr, align 8
  %call3 = call noundef nonnull align 8 dereferenceable(60) ptr @_ZN6icu_7510CharString6appendEPKciR10UErrorCode(ptr noundef nonnull align 8 dereferenceable(60) %this1, ptr noundef %call, i32 noundef %call2, ptr noundef nonnull align 4 dereferenceable(4) %2)
  ret ptr %call3
}

; Function Attrs: mustprogress uwtable
define linkonce_odr void @_ZN6icu_7510CharStringC2ENS_11StringPieceER10UErrorCode(ptr noundef nonnull align 8 dereferenceable(60) %this, ptr %s.coerce0, i32 %s.coerce1, ptr noundef nonnull align 4 dereferenceable(4) %errorCode) unnamed_addr #1 comdat align 2 personality ptr @__gxx_personality_v0 {
entry:
  %s = alloca %"class.icu_75::StringPiece", align 8
  %this.addr = alloca ptr, align 8
  %errorCode.addr = alloca ptr, align 8
  %agg.tmp = alloca %"class.icu_75::StringPiece", align 8
  %exn.slot = alloca ptr, align 8
  %ehselector.slot = alloca i32, align 4
  %0 = getelementptr inbounds { ptr, i32 }, ptr %s, i32 0, i32 0
  store ptr %s.coerce0, ptr %0, align 8
  %1 = getelementptr inbounds { ptr, i32 }, ptr %s, i32 0, i32 1
  store i32 %s.coerce1, ptr %1, align 8
  store ptr %this, ptr %this.addr, align 8
  store ptr %errorCode, ptr %errorCode.addr, align 8
  %this1 = load ptr, ptr %this.addr, align 8
  %buffer = getelementptr inbounds %"class.icu_75::CharString", ptr %this1, i32 0, i32 0
  call void @_ZN6icu_7515MaybeStackArrayIcLi40EEC1Ev(ptr noundef nonnull align 8 dereferenceable(53) %buffer)
  %len = getelementptr inbounds %"class.icu_75::CharString", ptr %this1, i32 0, i32 1
  store i32 0, ptr %len, align 8
  %buffer2 = getelementptr inbounds %"class.icu_75::CharString", ptr %this1, i32 0, i32 0
  %call = call noundef nonnull align 1 dereferenceable(1) ptr @_ZN6icu_7515MaybeStackArrayIcLi40EEixEl(ptr noundef nonnull align 8 dereferenceable(53) %buffer2, i64 noundef 0)
  store i8 0, ptr %call, align 1
  call void @llvm.memcpy.p0.p0.i64(ptr align 8 %agg.tmp, ptr align 8 %s, i64 16, i1 false)
  %2 = load ptr, ptr %errorCode.addr, align 8
  %3 = getelementptr inbounds { ptr, i32 }, ptr %agg.tmp, i32 0, i32 0
  %4 = load ptr, ptr %3, align 8
  %5 = getelementptr inbounds { ptr, i32 }, ptr %agg.tmp, i32 0, i32 1
  %6 = load i32, ptr %5, align 8
  %call3 = invoke noundef nonnull align 8 dereferenceable(60) ptr @_ZN6icu_7510CharString6appendENS_11StringPieceER10UErrorCode(ptr noundef nonnull align 8 dereferenceable(60) %this1, ptr %4, i32 %6, ptr noundef nonnull align 4 dereferenceable(4) %2)
          to label %invoke.cont unwind label %lpad

invoke.cont:                                      ; preds = %entry
  ret void

lpad:                                             ; preds = %entry
  %7 = landingpad { ptr, i32 }
          cleanup
  %8 = extractvalue { ptr, i32 } %7, 0
  store ptr %8, ptr %exn.slot, align 8
  %9 = extractvalue { ptr, i32 } %7, 1
  store i32 %9, ptr %ehselector.slot, align 4
  call void @_ZN6icu_7515MaybeStackArrayIcLi40EED1Ev(ptr noundef nonnull align 8 dereferenceable(53) %buffer) #9
  br label %eh.resume

eh.resume:                                        ; preds = %lpad
  %exn = load ptr, ptr %exn.slot, align 8
  %sel = load i32, ptr %ehselector.slot, align 4
  %lpad.val = insertvalue { ptr, i32 } poison, ptr %exn, 0
  %lpad.val4 = insertvalue { ptr, i32 } %lpad.val, i32 %sel, 1
  resume { ptr, i32 } %lpad.val4
}

; Function Attrs: mustprogress uwtable
define internal void @_ZN6icu_75L21_setUnicodeExtensionsERNS_6LocaleERKNS_10CharStringER10UErrorCode(ptr noundef nonnull align 8 dereferenceable(217) %locale, ptr noundef nonnull align 8 dereferenceable(60) %value, ptr noundef nonnull align 4 dereferenceable(4) %errorCode) #1 personality ptr @__gxx_personality_v0 {
entry:
  %locale.addr = alloca ptr, align 8
  %value.addr = alloca ptr, align 8
  %errorCode.addr = alloca ptr, align 8
  %locale_str = alloca %"class.icu_75::CharString", align 8
  %agg.tmp = alloca %"class.icu_75::StringPiece", align 8
  %exn.slot = alloca ptr, align 8
  %ehselector.slot = alloca i32, align 4
  %ref.tmp = alloca %"class.icu_75::Locale", align 8
  %agg.tmp1 = alloca %"class.icu_75::StringPiece", align 8
  store ptr %locale, ptr %locale.addr, align 8
  store ptr %value, ptr %value.addr, align 8
  store ptr %errorCode, ptr %errorCode.addr, align 8
  call void @_ZN6icu_7511StringPieceC1EPKc(ptr noundef nonnull align 8 dereferenceable(12) %agg.tmp, ptr noundef @.str.2)
  %0 = load ptr, ptr %errorCode.addr, align 8
  %1 = getelementptr inbounds { ptr, i32 }, ptr %agg.tmp, i32 0, i32 0
  %2 = load ptr, ptr %1, align 8
  %3 = getelementptr inbounds { ptr, i32 }, ptr %agg.tmp, i32 0, i32 1
  %4 = load i32, ptr %3, align 8
  call void @_ZN6icu_7510CharStringC2ENS_11StringPieceER10UErrorCode(ptr noundef nonnull align 8 dereferenceable(60) %locale_str, ptr %2, i32 %4, ptr noundef nonnull align 4 dereferenceable(4) %0)
  %5 = load ptr, ptr %value.addr, align 8
  %6 = load ptr, ptr %errorCode.addr, align 8
  %call = invoke noundef nonnull align 8 dereferenceable(60) ptr @_ZN6icu_7510CharString6appendERKS0_R10UErrorCode(ptr noundef nonnull align 8 dereferenceable(60) %locale_str, ptr noundef nonnull align 8 dereferenceable(60) %5, ptr noundef nonnull align 4 dereferenceable(4) %6)
          to label %invoke.cont unwind label %lpad

invoke.cont:                                      ; preds = %entry
  %call2 = call noundef ptr @_ZN6icu_7510CharString4dataEv(ptr noundef nonnull align 8 dereferenceable(60) %locale_str)
  invoke void @_ZN6icu_7511StringPieceC1EPKc(ptr noundef nonnull align 8 dereferenceable(12) %agg.tmp1, ptr noundef %call2)
          to label %invoke.cont3 unwind label %lpad

invoke.cont3:                                     ; preds = %invoke.cont
  %7 = load ptr, ptr %errorCode.addr, align 8
  %8 = getelementptr inbounds { ptr, i32 }, ptr %agg.tmp1, i32 0, i32 0
  %9 = load ptr, ptr %8, align 8
  %10 = getelementptr inbounds { ptr, i32 }, ptr %agg.tmp1, i32 0, i32 1
  %11 = load i32, ptr %10, align 8
  invoke void @_ZN6icu_756Locale14forLanguageTagENS_11StringPieceER10UErrorCode(ptr sret(%"class.icu_75::Locale") align 8 %ref.tmp, ptr %9, i32 %11, ptr noundef nonnull align 4 dereferenceable(4) %7)
          to label %invoke.cont4 unwind label %lpad

invoke.cont4:                                     ; preds = %invoke.cont3
  %12 = load ptr, ptr %locale.addr, align 8
  %13 = load ptr, ptr %errorCode.addr, align 8
  invoke void @_ZN6icu_75L15_copyExtensionsERKNS_6LocaleEPNS_17StringEnumerationERS0_bR10UErrorCode(ptr noundef nonnull align 8 dereferenceable(217) %ref.tmp, ptr noundef null, ptr noundef nonnull align 8 dereferenceable(217) %12, i1 noundef zeroext false, ptr noundef nonnull align 4 dereferenceable(4) %13)
          to label %invoke.cont6 unwind label %lpad5

invoke.cont6:                                     ; preds = %invoke.cont4
  call void @_ZN6icu_756LocaleD1Ev(ptr noundef nonnull align 8 dereferenceable(217) %ref.tmp) #9
  call void @_ZN6icu_7510CharStringD2Ev(ptr noundef nonnull align 8 dereferenceable(60) %locale_str) #9
  ret void

lpad:                                             ; preds = %invoke.cont3, %invoke.cont, %entry
  %14 = landingpad { ptr, i32 }
          cleanup
  %15 = extractvalue { ptr, i32 } %14, 0
  store ptr %15, ptr %exn.slot, align 8
  %16 = extractvalue { ptr, i32 } %14, 1
  store i32 %16, ptr %ehselector.slot, align 4
  br label %ehcleanup

lpad5:                                            ; preds = %invoke.cont4
  %17 = landingpad { ptr, i32 }
          cleanup
  %18 = extractvalue { ptr, i32 } %17, 0
  store ptr %18, ptr %exn.slot, align 8
  %19 = extractvalue { ptr, i32 } %17, 1
  store i32 %19, ptr %ehselector.slot, align 4
  call void @_ZN6icu_756LocaleD1Ev(ptr noundef nonnull align 8 dereferenceable(217) %ref.tmp) #9
  br label %ehcleanup

ehcleanup:                                        ; preds = %lpad5, %lpad
  call void @_ZN6icu_7510CharStringD2Ev(ptr noundef nonnull align 8 dereferenceable(60) %locale_str) #9
  br label %eh.resume

eh.resume:                                        ; preds = %ehcleanup
  %exn = load ptr, ptr %exn.slot, align 8
  %sel = load i32, ptr %ehselector.slot, align 4
  %lpad.val = insertvalue { ptr, i32 } poison, ptr %exn, 0
  %lpad.val7 = insertvalue { ptr, i32 } %lpad.val, i32 %sel, 1
  resume { ptr, i32 } %lpad.val7
}