; Function Attrs: mustprogress uwtable
define internal fastcc void @_ZN6icu_75L21_setUnicodeExtensionsERNS_6LocaleERKNS_10CharStringER10UErrorCode(ptr noundef nonnull align 8 dereferenceable(217) %locale, ptr nocapture noundef nonnull readonly align 8 dereferenceable(60) %value, ptr noundef nonnull align 4 dereferenceable(4) %errorCode) unnamed_addr #1 personality ptr @__gxx_personality_v0 {
entry:
  %locale_str = alloca %"class.icu_75::CharString", align 8
  %agg.tmp = alloca %"class.icu_75::StringPiece", align 8
  %ref.tmp = alloca %"class.icu_75::Locale", align 8
  %agg.tmp1 = alloca %"class.icu_75::StringPiece", align 8
  call void @_ZN6icu_7511StringPieceC1EPKc(ptr noundef nonnull align 8 dereferenceable(12) %agg.tmp, ptr noundef nonnull @.str.2)
  %0 = load ptr, ptr %agg.tmp, align 8
  %1 = getelementptr inbounds i8, ptr %agg.tmp, i64 8
  %2 = load i32, ptr %1, align 8
  call void @_ZN6icu_7515MaybeStackArrayIcLi40EEC1Ev(ptr noundef nonnull align 8 dereferenceable(53) %locale_str)
  %len.i = getelementptr inbounds i8, ptr %locale_str, i64 56
  store i32 0, ptr %len.i, align 8
  %3 = load ptr, ptr %locale_str, align 8
  store i8 0, ptr %3, align 1
  %call3.i1.i = invoke noundef nonnull align 8 dereferenceable(60) ptr @_ZN6icu_7510CharString6appendEPKciR10UErrorCode(ptr noundef nonnull align 8 dereferenceable(60) %locale_str, ptr noundef %0, i32 noundef %2, ptr noundef nonnull align 4 dereferenceable(4) %errorCode)
          to label %_ZN6icu_7510CharStringC2ENS_11StringPieceER10UErrorCode.exit unwind label %lpad.i

common.resume:                                    ; preds = %lpad, %lpad5, %lpad.i
  %common.resume.op = phi { ptr, i32 } [ %4, %lpad.i ], [ %12, %lpad5 ], [ %11, %lpad ]
  call void @_ZN6icu_7515MaybeStackArrayIcLi40EED1Ev(ptr noundef nonnull align 8 dereferenceable(53) %locale_str) #13
  resume { ptr, i32 } %common.resume.op

lpad.i:                                           ; preds = %entry
  %4 = landingpad { ptr, i32 }
          cleanup
  br label %common.resume

_ZN6icu_7510CharStringC2ENS_11StringPieceER10UErrorCode.exit: ; preds = %entry
  %5 = load ptr, ptr %value, align 8
  %len.i.i = getelementptr inbounds i8, ptr %value, i64 56
  %6 = load i32, ptr %len.i.i, align 8
  %call3.i5 = invoke noundef nonnull align 8 dereferenceable(60) ptr @_ZN6icu_7510CharString6appendEPKciR10UErrorCode(ptr noundef nonnull align 8 dereferenceable(60) %locale_str, ptr noundef %5, i32 noundef %6, ptr noundef nonnull align 4 dereferenceable(4) %errorCode)
          to label %invoke.cont unwind label %lpad

invoke.cont:                                      ; preds = %_ZN6icu_7510CharStringC2ENS_11StringPieceER10UErrorCode.exit
  %7 = load ptr, ptr %locale_str, align 8
  invoke void @_ZN6icu_7511StringPieceC1EPKc(ptr noundef nonnull align 8 dereferenceable(12) %agg.tmp1, ptr noundef %7)
          to label %invoke.cont3 unwind label %lpad

invoke.cont3:                                     ; preds = %invoke.cont
  %8 = load ptr, ptr %agg.tmp1, align 8
  %9 = getelementptr inbounds i8, ptr %agg.tmp1, i64 8
  %10 = load i32, ptr %9, align 8
  invoke void @_ZN6icu_756Locale14forLanguageTagENS_11StringPieceER10UErrorCode(ptr nonnull sret(%"class.icu_75::Locale") align 8 %ref.tmp, ptr %8, i32 %10, ptr noundef nonnull align 4 dereferenceable(4) %errorCode)
          to label %invoke.cont4 unwind label %lpad

invoke.cont4:                                     ; preds = %invoke.cont3
  invoke fastcc void @_ZN6icu_75L15_copyExtensionsERKNS_6LocaleEPNS_17StringEnumerationERS0_bR10UErrorCode(ptr noundef nonnull align 8 dereferenceable(217) %ref.tmp, ptr noundef null, ptr noundef nonnull align 8 dereferenceable(217) %locale, i1 noundef zeroext false, ptr noundef nonnull align 4 dereferenceable(4) %errorCode)
          to label %invoke.cont6 unwind label %lpad5

invoke.cont6:                                     ; preds = %invoke.cont4
  call void @_ZN6icu_756LocaleD1Ev(ptr noundef nonnull align 8 dereferenceable(217) %ref.tmp) #13
  call void @_ZN6icu_7515MaybeStackArrayIcLi40EED1Ev(ptr noundef nonnull align 8 dereferenceable(53) %locale_str) #13
  ret void

lpad:                                             ; preds = %_ZN6icu_7510CharStringC2ENS_11StringPieceER10UErrorCode.exit, %invoke.cont3, %invoke.cont
  %11 = landingpad { ptr, i32 }
          cleanup
  br label %common.resume

lpad5:                                            ; preds = %invoke.cont4
  %12 = landingpad { ptr, i32 }
          cleanup
  call void @_ZN6icu_756LocaleD1Ev(ptr noundef nonnull align 8 dereferenceable(217) %ref.tmp) #13
  br label %common.resume
}